target datalayout = "e-m:e-p270:32:32-p271:32:32-p272:64:64-i64:64-i128:128-f80:128-n8:16:32:64-S128"
target triple = "x86_64-pc-linux-gnu"

%class.QString = type { ptr }
%class.QObject = type { ptr, %class.QScopedPointer }
%class.QScopedPointer = type { ptr }
%class.QualityMapperDialog = type { %class.QDockWidget, %"class.Ui::QualityMapperDialogClass", ptr, ptr, %class.QGraphicsScene, [3 x ptr], double, i8, i8, %class.QList, i32, ptr, ptr, ptr, %class.QGraphicsScene, ptr, [3 x %class.QList.22], ptr, %class.QString, %class.QList, %class.QList, i8, %class.QList.25, %class.QList, ptr, ptr }
%class.QDockWidget = type { %class.QWidget }
%class.QWidget = type { %class.QObject, %class.QPaintDevice, ptr }
%class.QPaintDevice = type { ptr, i16, ptr }
%"class.Ui::QualityMapperDialogClass" = type { %class.Ui_QualityMapperDialogClass }
%class.Ui_QualityMapperDialogClass = type { ptr, ptr, ptr, ptr, ptr, ptr, ptr, ptr, ptr, ptr, ptr, ptr, ptr, ptr, ptr, ptr, ptr, ptr, ptr, ptr, ptr, ptr, ptr, ptr, ptr, ptr, ptr, ptr, ptr, ptr, ptr, ptr, ptr, ptr, ptr, ptr, ptr, ptr, ptr, ptr, ptr, ptr, ptr, ptr, ptr, ptr, ptr, ptr, ptr, ptr, ptr, ptr, ptr, ptr, ptr, ptr, ptr, ptr, ptr, ptr, ptr, ptr, ptr, ptr, ptr, ptr, ptr, ptr }
%class.QGraphicsScene = type { %class.QObject }
%class.QList.22 = type { %union.anon.24 }
%union.anon.24 = type { %struct.QListData }
%struct.QListData = type { ptr }
%class.QList.25 = type { %union.anon.27 }
%union.anon.27 = type { %struct.QListData }
%class.QList = type { %union.anon }
%union.anon = type { %struct.QListData }

; Function Attrs: mustprogress uwtable
define void @_ZN19QualityMapperDialog25on_TfHandle_doubleClickedEP8TFHandle(ptr noundef nonnull align 8 dereferenceable(824) %0, ptr noundef %1) #5 align 2 {
  %3 = alloca ptr, align 8
  %4 = alloca ptr, align 8
  store ptr %0, ptr %3, align 8
  store ptr %1, ptr %4, align 8
  %5 = load ptr, ptr %3, align 8
  %6 = load ptr, ptr %4, align 8
  %7 = getelementptr inbounds %class.QualityMapperDialog, ptr %5, i32 0, i32 17
  store ptr %6, ptr %7, align 8
  %8 = getelementptr inbounds %class.QualityMapperDialog, ptr %5, i32 0, i32 17
  %9 = load ptr, ptr %8, align 8
  %10 = call noundef ptr @_ZN19QualityMapperDialog14removeTfHandleEP8TFHandle(ptr noundef nonnull align 8 dereferenceable(824) %5, ptr noundef %9)
  %11 = getelementptr inbounds %class.QualityMapperDialog, ptr %5, i32 0, i32 17
  store ptr %10, ptr %11, align 8
  %12 = getelementptr inbounds %class.QualityMapperDialog, ptr %5, i32 0, i32 1
  %13 = getelementptr inbounds %class.Ui_QualityMapperDialogClass, ptr %12, i32 0, i32 65
  %14 = load ptr, ptr %13, align 8
  %15 = call noundef zeroext i1 @_ZNK15QAbstractButton9isCheckedEv(ptr noundef nonnull align 8 dereferenceable(48) %14)
  br i1 %15, label %16, label %17

16:                                               ; preds = %2
  call void @_ZN19QualityMapperDialog22on_applyButton_clickedEv(ptr noundef nonnull align 8 dereferenceable(824) %5)
  br label %17

17:                                               ; preds = %16, %2
  ret void
}