; Function Attrs: mustprogress uwtable
define void @_ZN19QualityMapperDialog25on_TfHandle_doubleClickedEP8TFHandle(ptr noundef nonnull align 8 dereferenceable(824) %0, ptr noundef %1) local_unnamed_addr #9 align 2 {
  %3 = getelementptr inbounds i8, ptr %0, i64 752
  store ptr %1, ptr %3, align 8
  %4 = tail call noundef ptr @_ZN19QualityMapperDialog14removeTfHandleEP8TFHandle(ptr noundef nonnull align 8 dereferenceable(824) %0, ptr noundef %1)
  store ptr null, ptr %3, align 8
  %5 = getelementptr inbounds i8, ptr %0, i64 568
  %6 = load ptr, ptr %5, align 8
  %7 = tail call noundef zeroext i1 @_ZNK15QAbstractButton9isCheckedEv(ptr noundef nonnull align 8 dereferenceable(48) %6)
  br i1 %7, label %8, label %9

8:                                                ; preds = %2
  tail call void @_ZN19QualityMapperDialog22on_applyButton_clickedEv(ptr noundef nonnull align 8 dereferenceable(824) %0)
  br label %9

9:                                                ; preds = %8, %2
  ret void
}